; Function Attrs: mustprogress uwtable
define void @_ZN5Yosys3AST12set_src_attrEPNS_5RTLIL10AttrObjectEPKNS0_7AstNodeE(ptr noundef %0, ptr noundef %1) local_unnamed_addr #4 personality ptr @__gxx_personality_v0 {
  %3 = alloca %"struct.Yosys::RTLIL::Const", align 8
  %4 = alloca %"class.std::__cxx11::basic_string", align 8
  %5 = getelementptr inbounds i8, ptr %1, i64 232
  %6 = tail call noundef ptr @_ZNKSt7__cxx1112basic_stringIcSt11char_traitsIcESaIcEE5c_strEv(ptr noundef nonnull align 8 dereferenceable(32) %5) #34, !noalias !45
  %7 = getelementptr inbounds i8, ptr %1, i64 264
  %8 = load i32, ptr %7, align 8, !noalias !45
  %9 = getelementptr inbounds i8, ptr %1, i64 272
  %10 = load i32, ptr %9, align 8, !noalias !45
  %11 = getelementptr inbounds i8, ptr %1, i64 268
  %12 = load i32, ptr %11, align 4, !noalias !45
  %13 = getelementptr inbounds i8, ptr %1, i64 276
  %14 = load i32, ptr %13, align 4, !noalias !45
  call void (ptr, ptr, ...) @_ZN5Yosys7stringfB5cxx11EPKcz(ptr dead_on_unwind nonnull writable sret(%"class.std::__cxx11::basic_string") align 8 %4, ptr noundef nonnull @.str.240, ptr noundef %6, i32 noundef %8, i32 noundef %10, i32 noundef %12, i32 noundef %14)
  invoke void @_ZN5Yosys5RTLIL5ConstC1ERKNSt7__cxx1112basic_stringIcSt11char_traitsIcESaIcEEE(ptr noundef nonnull align 8 dereferenceable(32) %3, ptr noundef nonnull align 8 dereferenceable(32) %4)
          to label %15 unwind label %24

15:                                               ; preds = %2
  %16 = invoke noundef nonnull align 8 dereferenceable(32) ptr @_ZN5Yosys7hashlib4dictINS_5RTLIL8IdStringENS2_5ConstENS0_8hash_opsIS3_EEEixERKS3_(ptr noundef nonnull align 8 dereferenceable(49) %0, ptr noundef nonnull align 4 dereferenceable(4) @_ZN5Yosys5RTLIL2ID3srcE)
          to label %17 unwind label %26

17:                                               ; preds = %15
  %18 = load i32, ptr %3, align 8
  store i32 %18, ptr %16, align 8
  %19 = getelementptr inbounds i8, ptr %16, i64 8
  %20 = getelementptr inbounds i8, ptr %3, i64 8
  %21 = invoke noundef nonnull align 8 dereferenceable(24) ptr @_ZNSt6vectorIN5Yosys5RTLIL5StateESaIS2_EEaSERKS4_(ptr noundef nonnull align 8 dereferenceable(24) %19, ptr noundef nonnull align 8 dereferenceable(24) %20)
          to label %_ZN5Yosys5RTLIL5ConstaSERKS1_.exit unwind label %26

_ZN5Yosys5RTLIL5ConstaSERKS1_.exit:               ; preds = %17
  %22 = load ptr, ptr %20, align 8
  %.not.i.i.i.i = icmp eq ptr %22, null
  br i1 %.not.i.i.i.i, label %_ZN5Yosys5RTLIL5ConstD2Ev.exit, label %23

23:                                               ; preds = %_ZN5Yosys5RTLIL5ConstaSERKS1_.exit
  call void @_ZdlPv(ptr noundef nonnull %22) #33
  br label %_ZN5Yosys5RTLIL5ConstD2Ev.exit

_ZN5Yosys5RTLIL5ConstD2Ev.exit:                   ; preds = %_ZN5Yosys5RTLIL5ConstaSERKS1_.exit, %23
  call void @_ZNSt7__cxx1112basic_stringIcSt11char_traitsIcESaIcEED1Ev(ptr noundef nonnull align 8 dereferenceable(32) %4) #34
  ret void

24:                                               ; preds = %2
  %25 = landingpad { ptr, i32 }
          cleanup
  br label %_ZN5Yosys5RTLIL5ConstD2Ev.exit6

26:                                               ; preds = %17, %15
  %27 = landingpad { ptr, i32 }
          cleanup
  %28 = getelementptr inbounds i8, ptr %3, i64 8
  %29 = load ptr, ptr %28, align 8
  %.not.i.i.i.i5 = icmp eq ptr %29, null
  br i1 %.not.i.i.i.i5, label %_ZN5Yosys5RTLIL5ConstD2Ev.exit6, label %30

30:                                               ; preds = %26
  call void @_ZdlPv(ptr noundef nonnull %29) #33
  br label %_ZN5Yosys5RTLIL5ConstD2Ev.exit6

_ZN5Yosys5RTLIL5ConstD2Ev.exit6:                  ; preds = %30, %26, %24
  %.pn = phi { ptr, i32 } [ %25, %24 ], [ %27, %26 ], [ %27, %30 ]
  call void @_ZNSt7__cxx1112basic_stringIcSt11char_traitsIcESaIcEED1Ev(ptr noundef nonnull align 8 dereferenceable(32) %4) #34
  resume { ptr, i32 } %.pn
}